; Function Attrs: mustprogress uwtable
define noundef ptr @_ZNK9RBDataMap14getStringArrayERiPKcR10UErrorCode(ptr noundef nonnull align 8 dereferenceable(16) %this, ptr nocapture noundef nonnull align 4 dereferenceable(4) %count, ptr noundef %key, ptr noundef nonnull align 4 dereferenceable(4) %status) unnamed_addr #4 align 2 personality ptr @__gxx_personality_v0 {
entry:
  %ref.tmp = alloca %"class.icu_75::UnicodeString", align 8
  %vtable = load ptr, ptr %this, align 8
  %vfn = getelementptr inbounds i8, ptr %vtable, i64 80
  %0 = load ptr, ptr %vfn, align 8
  %call = tail call noundef ptr %0(ptr noundef nonnull align 8 dereferenceable(16) %this, ptr noundef %key, ptr noundef nonnull align 4 dereferenceable(4) %status)
  %1 = load i32, ptr %status, align 4
  %cmp.i = icmp sgt i32 %1, 0
  br i1 %cmp.i, label %return, label %if.then

if.then:                                          ; preds = %entry
  %call3 = tail call noundef i32 @_ZNK6icu_7514ResourceBundle7getSizeEv(ptr noundef nonnull align 8 dereferenceable(24) %call)
  store i32 %call3, ptr %count, align 4
  %cmp = icmp slt i32 %call3, 1
  br i1 %cmp, label %return, label %if.end

if.end:                                           ; preds = %if.then
  %conv = zext nneg i32 %call3 to i64
  %2 = shl nuw nsw i64 %conv, 6
  %3 = or disjoint i64 %2, 8
  %call5 = tail call noundef ptr @_ZN6icu_757UMemorynaEm(i64 noundef %3) #15
  %new.isnull = icmp eq ptr %call5, null
  br i1 %new.isnull, label %new.cont, label %new.notnull

new.notnull:                                      ; preds = %if.end
  store i64 %conv, ptr %call5, align 8
  %.ptr = getelementptr inbounds i8, ptr %call5, i64 8
  %arrayctor.end = getelementptr inbounds %"class.icu_75::UnicodeString", ptr %.ptr, i64 %conv
  br label %invoke.cont

invoke.cont:                                      ; preds = %new.notnull, %invoke.cont
  %arrayctor.cur.idx = phi i64 [ 8, %new.notnull ], [ %arrayctor.cur.add, %invoke.cont ]
  %arrayctor.cur.ptr.ptr = getelementptr inbounds i8, ptr %call5, i64 %arrayctor.cur.idx
  store ptr getelementptr inbounds ({ [13 x ptr] }, ptr @_ZTVN6icu_7513UnicodeStringE, i64 0, i32 0, i64 2), ptr %arrayctor.cur.ptr.ptr, align 8
  %fUnion2.i = getelementptr inbounds i8, ptr %arrayctor.cur.ptr.ptr, i64 8
  store i16 2, ptr %fUnion2.i, align 8
  %arrayctor.cur.add = add nuw nsw i64 %arrayctor.cur.idx, 64
  %arrayctor.next.ptr = getelementptr inbounds i8, ptr %call5, i64 %arrayctor.cur.add
  %arrayctor.done = icmp eq ptr %arrayctor.next.ptr, %arrayctor.end
  br i1 %arrayctor.done, label %new.cont, label %invoke.cont

new.cont:                                         ; preds = %invoke.cont, %if.end
  %4 = phi ptr [ null, %if.end ], [ %.ptr, %invoke.cont ]
  %5 = load i32, ptr %count, align 4
  %cmp1311 = icmp sgt i32 %5, 0
  br i1 %cmp1311, label %for.body, label %return

for.body:                                         ; preds = %new.cont, %for.body
  %indvars.iv = phi i64 [ %indvars.iv.next, %for.body ], [ 0, %new.cont ]
  %6 = trunc i64 %indvars.iv to i32
  call void @_ZNK6icu_7514ResourceBundle11getStringExEiR10UErrorCode(ptr nonnull sret(%"class.icu_75::UnicodeString") align 8 %ref.tmp, ptr noundef nonnull align 8 dereferenceable(24) %call, i32 noundef %6, ptr noundef nonnull align 4 dereferenceable(4) %status)
  %arrayidx = getelementptr inbounds %"class.icu_75::UnicodeString", ptr %4, i64 %indvars.iv
  %call14 = call noundef nonnull align 8 dereferenceable(64) ptr @_ZN6icu_7513UnicodeStringaSEOS0_(ptr noundef nonnull align 8 dereferenceable(64) %arrayidx, ptr noundef nonnull align 8 dereferenceable(64) %ref.tmp) #15
  call void @_ZN6icu_7513UnicodeStringD1Ev(ptr noundef nonnull align 8 dereferenceable(64) %ref.tmp) #15
  %indvars.iv.next = add nuw nsw i64 %indvars.iv, 1
  %7 = load i32, ptr %count, align 4
  %8 = sext i32 %7 to i64
  %cmp13 = icmp slt i64 %indvars.iv.next, %8
  br i1 %cmp13, label %for.body, label %return, !llvm.loop !8

return:                                           ; preds = %for.body, %new.cont, %entry, %if.then
  %retval.0 = phi ptr [ null, %if.then ], [ null, %entry ], [ %4, %new.cont ], [ %4, %for.body ]
  ret ptr %retval.0
}